target datalayout = "e-m:e-p270:32:32-p271:32:32-p272:64:64-i64:64-i128:128-f80:128-n8:16:32:64-S128"
target triple = "x86_64-pc-linux-gnu"

%struct.Gia_IsoMan_t_ = type { ptr, i32, i32, i32, i32, ptr, ptr, ptr, ptr, ptr, ptr, ptr, i64, i64, i64, i64, i64, i64 }
%struct.Vec_Int_t_ = type { i32, i32, ptr }

@.str = private unnamed_addr constant [26 x i8] c"The total of %d classes:\0A\00", align 1
@.str.1 = private unnamed_addr constant [18 x i8] c"%5d : (%3d,%3d)  \00", align 1
@.str.2 = private unnamed_addr constant [2 x i8] c"{\00", align 1
@.str.3 = private unnamed_addr constant [10 x i8] c" %3d,%08x\00", align 1
@.str.4 = private unnamed_addr constant [3 x i8] c" }\00", align 1
@.str.5 = private unnamed_addr constant [2 x i8] c"\0A\00", align 1

; Function Attrs: inlinehint nounwind uwtable
define internal i32 @Gia_IsoGetValue(ptr noundef %0, i32 noundef %1) #3 {
  %3 = alloca ptr, align 8
  %4 = alloca i32, align 4
  store ptr %0, ptr %3, align 8, !tbaa !8
  store i32 %1, ptr %4, align 4, !tbaa !42
  %5 = load ptr, ptr %3, align 8, !tbaa !8
  %6 = getelementptr inbounds nuw %struct.Gia_IsoMan_t_, ptr %5, i32 0, i32 7
  %7 = load ptr, ptr %6, align 8, !tbaa !22
  %8 = load i32, ptr %4, align 4, !tbaa !42
  %9 = sext i32 %8 to i64
  %10 = getelementptr inbounds i64, ptr %7, i64 %9
  %11 = load i64, ptr %10, align 8, !tbaa !55
  %12 = trunc i64 %11 to i32
  ret i32 %12
}

; Function Attrs: inlinehint nounwind uwtable
define internal i32 @Gia_IsoGetItem(ptr noundef %0, i32 noundef %1) #3 {
  %3 = alloca ptr, align 8
  %4 = alloca i32, align 4
  store ptr %0, ptr %3, align 8, !tbaa !8
  store i32 %1, ptr %4, align 4, !tbaa !42
  %5 = load ptr, ptr %3, align 8, !tbaa !8
  %6 = getelementptr inbounds nuw %struct.Gia_IsoMan_t_, ptr %5, i32 0, i32 7
  %7 = load ptr, ptr %6, align 8, !tbaa !22
  %8 = load i32, ptr %4, align 4, !tbaa !42
  %9 = sext i32 %8 to i64
  %10 = getelementptr inbounds i64, ptr %7, i64 %9
  %11 = load i64, ptr %10, align 8, !tbaa !55
  %12 = lshr i64 %11, 32
  %13 = trunc i64 %12 to i32
  ret i32 %13
}

; Function Attrs: inlinehint nounwind uwtable
define internal i32 @Vec_IntEntry(ptr noundef %0, i32 noundef %1) #3 {
  %3 = alloca ptr, align 8
  %4 = alloca i32, align 4
  store ptr %0, ptr %3, align 8, !tbaa !43
  store i32 %1, ptr %4, align 4, !tbaa !42
  %5 = load ptr, ptr %3, align 8, !tbaa !43
  %6 = getelementptr inbounds nuw %struct.Vec_Int_t_, ptr %5, i32 0, i32 2
  %7 = load ptr, ptr %6, align 8, !tbaa !46
  %8 = load i32, ptr %4, align 4, !tbaa !42
  %9 = sext i32 %8 to i64
  %10 = getelementptr inbounds i32, ptr %7, i64 %9
  %11 = load i32, ptr %10, align 4, !tbaa !42
  ret i32 %11
}

; Function Attrs: inlinehint nounwind uwtable
define internal i32 @Vec_IntSize(ptr noundef %0) #3 {
  %2 = alloca ptr, align 8
  store ptr %0, ptr %2, align 8, !tbaa !43
  %3 = load ptr, ptr %2, align 8, !tbaa !43
  %4 = getelementptr inbounds nuw %struct.Vec_Int_t_, ptr %3, i32 0, i32 1
  %5 = load i32, ptr %4, align 4, !tbaa !44
  ret i32 %5
}

; Function Attrs: nounwind uwtable
define void @Gia_IsoPrintClasses(ptr noundef %0) #0 {
  %2 = alloca ptr, align 8
  %3 = alloca i32, align 4
  %4 = alloca i32, align 4
  %5 = alloca i32, align 4
  %6 = alloca i32, align 4
  %7 = alloca i32, align 4
  store ptr %0, ptr %2, align 8, !tbaa !8
  call void @llvm.lifetime.start.p0(i64 4, ptr %3) #12
  store i32 0, ptr %3, align 4, !tbaa !42
  call void @llvm.lifetime.start.p0(i64 4, ptr %4) #12
  call void @llvm.lifetime.start.p0(i64 4, ptr %5) #12
  call void @llvm.lifetime.start.p0(i64 4, ptr %6) #12
  call void @llvm.lifetime.start.p0(i64 4, ptr %7) #12
  %8 = load ptr, ptr %2, align 8, !tbaa !8
  %9 = getelementptr inbounds nuw %struct.Gia_IsoMan_t_, ptr %8, i32 0, i32 10
  %10 = load ptr, ptr %9, align 8, !tbaa !23
  %11 = call i32 @Vec_IntSize(ptr noundef %10)
  %12 = sdiv i32 %11, 2
  %13 = call i32 (ptr, ...) @printf(ptr noundef @.str, i32 noundef %12)
  store i32 0, ptr %4, align 4, !tbaa !42
  br label %14

14:                                               ; preds = %70, %1
  %15 = load i32, ptr %4, align 4, !tbaa !42
  %16 = add nsw i32 %15, 1
  %17 = load ptr, ptr %2, align 8, !tbaa !8
  %18 = getelementptr inbounds nuw %struct.Gia_IsoMan_t_, ptr %17, i32 0, i32 10
  %19 = load ptr, ptr %18, align 8, !tbaa !23
  %20 = call i32 @Vec_IntSize(ptr noundef %19)
  %21 = icmp slt i32 %16, %20
  br i1 %21, label %22, label %35

22:                                               ; preds = %14
  %23 = load ptr, ptr %2, align 8, !tbaa !8
  %24 = getelementptr inbounds nuw %struct.Gia_IsoMan_t_, ptr %23, i32 0, i32 10
  %25 = load ptr, ptr %24, align 8, !tbaa !23
  %26 = load i32, ptr %4, align 4, !tbaa !42
  %27 = call i32 @Vec_IntEntry(ptr noundef %25, i32 noundef %26)
  store i32 %27, ptr %6, align 4, !tbaa !42
  br i1 true, label %28, label %35

28:                                               ; preds = %22
  %29 = load ptr, ptr %2, align 8, !tbaa !8
  %30 = getelementptr inbounds nuw %struct.Gia_IsoMan_t_, ptr %29, i32 0, i32 10
  %31 = load ptr, ptr %30, align 8, !tbaa !23
  %32 = load i32, ptr %4, align 4, !tbaa !42
  %33 = add nsw i32 %32, 1
  %34 = call i32 @Vec_IntEntry(ptr noundef %31, i32 noundef %33)
  store i32 %34, ptr %7, align 4, !tbaa !42
  br label %35

35:                                               ; preds = %28, %22, %14
  %36 = phi i1 [ false, %22 ], [ false, %14 ], [ true, %28 ]
  br i1 %36, label %37, label %73

37:                                               ; preds = %35
  %38 = load i32, ptr %4, align 4, !tbaa !42
  %39 = sdiv i32 %38, 2
  %40 = load i32, ptr %6, align 4, !tbaa !42
  %41 = load i32, ptr %7, align 4, !tbaa !42
  %42 = call i32 (ptr, ...) @printf(ptr noundef @.str.1, i32 noundef %39, i32 noundef %40, i32 noundef %41)
  %43 = load i32, ptr %3, align 4, !tbaa !42
  %44 = icmp ne i32 %43, 0
  br i1 %44, label %45, label %68

45:                                               ; preds = %37
  %46 = call i32 (ptr, ...) @printf(ptr noundef @.str.2)
  store i32 0, ptr %5, align 4, !tbaa !42
  br label %47

47:                                               ; preds = %63, %45
  %48 = load i32, ptr %5, align 4, !tbaa !42
  %49 = load i32, ptr %7, align 4, !tbaa !42
  %50 = icmp slt i32 %48, %49
  br i1 %50, label %51, label %66

51:                                               ; preds = %47
  %52 = load ptr, ptr %2, align 8, !tbaa !8
  %53 = load i32, ptr %6, align 4, !tbaa !42
  %54 = load i32, ptr %5, align 4, !tbaa !42
  %55 = add nsw i32 %53, %54
  %56 = call i32 @Gia_IsoGetItem(ptr noundef %52, i32 noundef %55)
  %57 = load ptr, ptr %2, align 8, !tbaa !8
  %58 = load i32, ptr %6, align 4, !tbaa !42
  %59 = load i32, ptr %5, align 4, !tbaa !42
  %60 = add nsw i32 %58, %59
  %61 = call i32 @Gia_IsoGetValue(ptr noundef %57, i32 noundef %60)
  %62 = call i32 (ptr, ...) @printf(ptr noundef @.str.3, i32 noundef %56, i32 noundef %61)
  br label %63

63:                                               ; preds = %51
  %64 = load i32, ptr %5, align 4, !tbaa !42
  %65 = add nsw i32 %64, 1
  store i32 %65, ptr %5, align 4, !tbaa !42
  br label %47, !llvm.loop !53

66:                                               ; preds = %47
  %67 = call i32 (ptr, ...) @printf(ptr noundef @.str.4)
  br label %68

68:                                               ; preds = %66, %37
  %69 = call i32 (ptr, ...) @printf(ptr noundef @.str.5)
  br label %70

70:                                               ; preds = %68
  %71 = load i32, ptr %4, align 4, !tbaa !42
  %72 = add nsw i32 %71, 2
  store i32 %72, ptr %4, align 4, !tbaa !42
  br label %14, !llvm.loop !54

73:                                               ; preds = %35
  call void @llvm.lifetime.end.p0(i64 4, ptr %7) #12
  call void @llvm.lifetime.end.p0(i64 4, ptr %6) #12
  call void @llvm.lifetime.end.p0(i64 4, ptr %5) #12
  call void @llvm.lifetime.end.p0(i64 4, ptr %4) #12
  call void @llvm.lifetime.end.p0(i64 4, ptr %3) #12
  ret void
}