; Function Attrs: nofree nounwind uwtable
define void @Gia_IsoPrintClasses(ptr noundef readonly captures(none) %0) local_unnamed_addr #6 {
  %2 = getelementptr inbounds nuw i8, ptr %0, i64 64
  %3 = load ptr, ptr %2, align 8, !tbaa !40
  %4 = getelementptr i8, ptr %3, i64 4
  %.val = load i32, ptr %4, align 4, !tbaa !37
  %5 = sdiv i32 %.val, 2
  %6 = tail call i32 (ptr, ...) @printf(ptr noundef nonnull dereferenceable(1) @.str, i32 noundef %5)
  %7 = load ptr, ptr %2, align 8, !tbaa !40
  %8 = getelementptr i8, ptr %7, i64 4
  %.val2225 = load i32, ptr %8, align 4, !tbaa !37
  %9 = icmp sgt i32 %.val2225, 1
  br i1 %9, label %.lr.ph, label %.critedge

.lr.ph:                                           ; preds = %1, %.lr.ph
  %indvars.iv = phi i64 [ %indvars.iv.next, %.lr.ph ], [ 0, %1 ]
  %10 = phi ptr [ %20, %.lr.ph ], [ %7, %1 ]
  %11 = or disjoint i64 %indvars.iv, 1
  %12 = getelementptr i8, ptr %10, i64 8
  %.val23 = load ptr, ptr %12, align 8, !tbaa !39
  %13 = getelementptr inbounds nuw i32, ptr %.val23, i64 %indvars.iv
  %14 = load i32, ptr %13, align 4, !tbaa !43
  %15 = getelementptr inbounds nuw i32, ptr %.val23, i64 %11
  %16 = load i32, ptr %15, align 4, !tbaa !43
  %17 = lshr exact i64 %indvars.iv, 1
  %18 = trunc nuw i64 %17 to i32
  %19 = tail call i32 (ptr, ...) @printf(ptr noundef nonnull dereferenceable(1) @.str.1, i32 noundef %18, i32 noundef %14, i32 noundef %16)
  %putchar = tail call i32 @putchar(i32 10)
  %indvars.iv.next = add nuw nsw i64 %indvars.iv, 2
  %20 = load ptr, ptr %2, align 8, !tbaa !40
  %21 = getelementptr i8, ptr %20, i64 4
  %.val22 = load i32, ptr %21, align 4, !tbaa !37
  %22 = trunc i64 %indvars.iv.next to i32
  %23 = or disjoint i32 %22, 1
  %24 = icmp slt i32 %23, %.val22
  br i1 %24, label %.lr.ph, label %.critedge, !llvm.loop !48

.critedge:                                        ; preds = %.lr.ph, %1
  ret void
}